target datalayout = "e-m:e-p270:32:32-p271:32:32-p272:64:64-i64:64-i128:128-f80:128-n8:16:32:64-S128"
target triple = "x86_64-pc-linux-gnu"

%struct.expert_field = type { i32, i32 }
%struct._asn1_ctx_t = type { i32, i32, i8, ptr, ptr, ptr, ptr, ptr, %struct.anon, %struct.anon.2, %struct.anon.3, ptr }
%struct.anon = type { i32, i8, i8, i8, ptr, ptr, i32, i32, ptr, ptr, ptr, %union.anon }
%union.anon = type { %struct.anon.0 }
%struct.anon.0 = type { ptr }
%struct.anon.2 = type { ptr, ptr, ptr }
%struct.anon.3 = type { i32, i8, ptr, i32, i32, ptr, ptr, ptr, %union.anon.4 }
%union.anon.4 = type { %struct.anon.5 }
%struct.anon.5 = type { ptr }
%struct._packet_info = type { ptr, ptr, i32, i32, %struct.nstime_t, %struct.nstime_t, %struct.nstime_t, i8, ptr, ptr, ptr, ptr, %struct._address, %struct._address, %struct._address, %struct._address, %struct._address, %struct._address, i32, ptr, i8, [3 x i8], %struct.anon.7, i32, i32, i32, i32, ptr, i8, ptr, ptr, i16, i16, i32, i32, i16, i32, i32, ptr, ptr, ptr, i8, i8, i16, i16, i16, i32, i16, i16, ptr, ptr, ptr, ptr, ptr, i32, i32 }
%struct.nstime_t = type { i64, i32 }
%struct._address = type { i32, i32, ptr, ptr }
%struct.anon.7 = type { i8, [3 x i8] }

@ett_mms = internal global i32 0, align 4
@ei_mms_zero_pdu = internal global %struct.expert_field zeroinitializer, align 4
@.str.1471 = private unnamed_addr constant [4 x i8] c"MMS\00", align 1
@proto_mms = internal global i32 0, align 4
@use_iec61850_mapping = internal global i8 1, align 1
@.str.2017 = private unnamed_addr constant [13 x i8] c"MMS/IEC61850\00", align 1

; Function Attrs: null_pointer_is_valid sspstrong uwtable
define internal i32 @dissect_mms(ptr noundef %0, ptr noundef %1, ptr noundef %2, ptr noundef %3) #0 {
  %5 = alloca ptr, align 8
  %6 = alloca ptr, align 8
  %7 = alloca ptr, align 8
  %8 = alloca ptr, align 8
  %9 = alloca i32, align 4
  %10 = alloca i32, align 4
  %11 = alloca ptr, align 8
  %12 = alloca ptr, align 8
  %13 = alloca %struct._asn1_ctx_t, align 8
  store ptr %0, ptr %5, align 8
  store ptr %1, ptr %6, align 8
  store ptr %2, ptr %7, align 8
  store ptr %3, ptr %8, align 8
  call void @llvm.lifetime.start.p0(i64 4, ptr %9) #8
  store i32 0, ptr %9, align 4
  call void @llvm.lifetime.start.p0(i64 4, ptr %10) #8
  call void @llvm.lifetime.start.p0(i64 8, ptr %11) #8
  store ptr null, ptr %11, align 8
  call void @llvm.lifetime.start.p0(i64 8, ptr %12) #8
  store ptr null, ptr %12, align 8
  call void @llvm.lifetime.start.p0(i64 208, ptr %13) #8
  %14 = load ptr, ptr %6, align 8
  call void @asn1_ctx_init(ptr noundef %13, i32 noundef 0, i1 noundef zeroext true, ptr noundef %14)
  %15 = load ptr, ptr %7, align 8
  %16 = icmp ne ptr %15, null
  br i1 %16, label %17, label %28

17:                                               ; preds = %4
  %18 = load ptr, ptr %7, align 8
  %19 = load i32, ptr @proto_mms, align 4
  %20 = load ptr, ptr %5, align 8
  %21 = call ptr @proto_tree_add_item(ptr noundef %18, i32 noundef %19, ptr noundef %20, i32 noundef 0, i32 noundef -1, i32 noundef 0)
  store ptr %21, ptr %11, align 8
  %22 = load ptr, ptr %11, align 8
  %23 = load i32, ptr @ett_mms, align 4
  %24 = call ptr @proto_item_add_subtree(ptr noundef %22, i32 noundef %23)
  store ptr %24, ptr %12, align 8
  %25 = load ptr, ptr %7, align 8
  %26 = getelementptr inbounds nuw %struct._asn1_ctx_t, ptr %13, i32 0, i32 9
  %27 = getelementptr inbounds nuw %struct.anon.2, ptr %26, i32 0, i32 1
  store ptr %25, ptr %27, align 8
  br label %28

28:                                               ; preds = %17, %4
  %29 = load i8, ptr @use_iec61850_mapping, align 1, !range !6, !noundef !7
  %30 = trunc i8 %29 to i1
  br i1 %30, label %31, label %35

31:                                               ; preds = %28
  %32 = load ptr, ptr %6, align 8
  %33 = getelementptr inbounds nuw %struct._packet_info, ptr %32, i32 0, i32 1
  %34 = load ptr, ptr %33, align 8
  call void @col_set_str(ptr noundef %34, i32 noundef 35, ptr noundef @.str.2017)
  br label %39

35:                                               ; preds = %28
  %36 = load ptr, ptr %6, align 8
  %37 = getelementptr inbounds nuw %struct._packet_info, ptr %36, i32 0, i32 1
  %38 = load ptr, ptr %37, align 8
  call void @col_set_str(ptr noundef %38, i32 noundef 35, ptr noundef @.str.1471)
  br label %39

39:                                               ; preds = %35, %31
  %40 = load ptr, ptr %6, align 8
  %41 = getelementptr inbounds nuw %struct._packet_info, ptr %40, i32 0, i32 1
  %42 = load ptr, ptr %41, align 8
  call void @col_clear(ptr noundef %42, i32 noundef 25)
  br label %43

43:                                               ; preds = %82, %39
  %44 = load ptr, ptr %5, align 8
  %45 = load i32, ptr %9, align 4
  %46 = call i32 @tvb_reported_length_remaining(ptr noundef %44, i32 noundef %45)
  %47 = icmp sgt i32 %46, 0
  br i1 %47, label %48, label %83

48:                                               ; preds = %43
  %49 = load i32, ptr %9, align 4
  store i32 %49, ptr %10, align 4
  %50 = load i8, ptr @use_iec61850_mapping, align 1, !range !6, !noundef !7
  %51 = trunc i8 %50 to i1
  br i1 %51, label %52, label %58

52:                                               ; preds = %48
  %53 = load ptr, ptr %6, align 8
  %54 = getelementptr inbounds nuw %struct._packet_info, ptr %53, i32 0, i32 51
  %55 = load ptr, ptr %54, align 8
  %56 = call noalias ptr @wmem_alloc0(ptr noundef %55, i64 noundef 72) #9
  %57 = getelementptr inbounds nuw %struct._asn1_ctx_t, ptr %13, i32 0, i32 7
  store ptr %56, ptr %57, align 8
  br label %58

58:                                               ; preds = %52, %48
  %59 = load ptr, ptr %5, align 8
  %60 = load i32, ptr %9, align 4
  %61 = load ptr, ptr %12, align 8
  %62 = call i32 @dissect_mms_MMSpdu(i1 noundef zeroext false, ptr noundef %59, i32 noundef %60, ptr noundef %13, ptr noundef %61, i32 noundef -1)
  store i32 %62, ptr %9, align 4
  %63 = getelementptr inbounds nuw %struct._asn1_ctx_t, ptr %13, i32 0, i32 7
  %64 = load ptr, ptr %63, align 8
  %65 = icmp ne ptr %64, null
  br i1 %65, label %66, label %72

66:                                               ; preds = %58
  %67 = load ptr, ptr %6, align 8
  %68 = getelementptr inbounds nuw %struct._packet_info, ptr %67, i32 0, i32 51
  %69 = load ptr, ptr %68, align 8
  %70 = getelementptr inbounds nuw %struct._asn1_ctx_t, ptr %13, i32 0, i32 7
  %71 = load ptr, ptr %70, align 8
  call void @wmem_free(ptr noundef %69, ptr noundef %71)
  br label %72

72:                                               ; preds = %66, %58
  %73 = load i32, ptr %9, align 4
  %74 = load i32, ptr %10, align 4
  %75 = icmp eq i32 %73, %74
  br i1 %75, label %76, label %82

76:                                               ; preds = %72
  %77 = load ptr, ptr %12, align 8
  %78 = load ptr, ptr %6, align 8
  %79 = load ptr, ptr %5, align 8
  %80 = load i32, ptr %9, align 4
  %81 = call ptr @proto_tree_add_expert(ptr noundef %77, ptr noundef %78, ptr noundef @ei_mms_zero_pdu, ptr noundef %79, i32 noundef %80, i32 noundef -1)
  br label %83

82:                                               ; preds = %72
  br label %43, !llvm.loop !8

83:                                               ; preds = %76, %43
  %84 = load ptr, ptr %5, align 8
  %85 = call i32 @tvb_captured_length(ptr noundef %84)
  call void @llvm.lifetime.end.p0(i64 208, ptr %13) #8
  call void @llvm.lifetime.end.p0(i64 8, ptr %12) #8
  call void @llvm.lifetime.end.p0(i64 8, ptr %11) #8
  call void @llvm.lifetime.end.p0(i64 4, ptr %10) #8
  call void @llvm.lifetime.end.p0(i64 4, ptr %9) #8
  ret i32 %85
}