; Function Attrs: null_pointer_is_valid sspstrong uwtable
define internal i32 @dissect_mms(ptr noundef %0, ptr noundef %1, ptr noundef %2, ptr readnone captures(none) %3) #0 {
  %5 = alloca %struct._asn1_ctx_t, align 8
  call void @llvm.lifetime.start.p0(i64 208, ptr nonnull %5) #8
  call void @asn1_ctx_init(ptr noundef nonnull %5, i32 noundef 0, i1 noundef zeroext true, ptr noundef %1)
  %.not = icmp eq ptr %2, null
  br i1 %.not, label %12, label %6

6:                                                ; preds = %4
  %7 = load i32, ptr @proto_mms, align 4
  %8 = call ptr @proto_tree_add_item(ptr noundef nonnull %2, i32 noundef %7, ptr noundef %0, i32 noundef 0, i32 noundef -1, i32 noundef 0)
  %9 = load i32, ptr @ett_mms, align 4
  %10 = call ptr @proto_item_add_subtree(ptr noundef %8, i32 noundef %9)
  %11 = getelementptr inbounds nuw i8, ptr %5, i64 128
  store ptr %2, ptr %11, align 8
  br label %12

12:                                               ; preds = %6, %4
  %.0 = phi ptr [ %10, %6 ], [ null, %4 ]
  %13 = load i8, ptr @use_iec61850_mapping, align 1, !range !6, !noundef !7
  %14 = trunc nuw i8 %13 to i1
  %15 = getelementptr inbounds nuw i8, ptr %1, i64 8
  %16 = load ptr, ptr %15, align 8
  %.str.2017..str.1471 = select i1 %14, ptr @.str.2017, ptr @.str.1471
  call void @col_set_str(ptr noundef %16, i32 noundef 35, ptr noundef nonnull %.str.2017..str.1471)
  %17 = getelementptr inbounds nuw i8, ptr %1, i64 8
  %18 = load ptr, ptr %17, align 8
  call void @col_clear(ptr noundef %18, i32 noundef 25)
  %19 = getelementptr inbounds nuw i8, ptr %1, i64 408
  %20 = getelementptr inbounds nuw i8, ptr %5, i64 48
  br label %21

21:                                               ; preds = %35, %12
  %.023 = phi i32 [ 0, %12 ], [ %31, %35 ]
  %22 = call i32 @tvb_reported_length_remaining(ptr noundef %0, i32 noundef %.023)
  %23 = icmp sgt i32 %22, 0
  br i1 %23, label %24, label %.loopexit

24:                                               ; preds = %21
  %25 = load i8, ptr @use_iec61850_mapping, align 1, !range !6, !noundef !7
  %26 = trunc nuw i8 %25 to i1
  br i1 %26, label %27, label %30

27:                                               ; preds = %24
  %28 = load ptr, ptr %19, align 8
  %29 = call noalias dereferenceable_or_null(72) ptr @wmem_alloc0(ptr noundef %28, i64 noundef 72) #9
  store ptr %29, ptr %20, align 8
  br label %30

30:                                               ; preds = %27, %24
  %31 = call i32 @dissect_mms_MMSpdu(i1 zeroext poison, ptr noundef %0, i32 noundef %.023, ptr noundef nonnull %5, ptr noundef %.0, i32 noundef -1)
  %32 = load ptr, ptr %20, align 8
  %.not27 = icmp eq ptr %32, null
  br i1 %.not27, label %35, label %33

33:                                               ; preds = %30
  %34 = load ptr, ptr %19, align 8
  call void @wmem_free(ptr noundef %34, ptr noundef nonnull %32)
  br label %35

35:                                               ; preds = %33, %30
  %36 = icmp eq i32 %31, %.023
  br i1 %36, label %37, label %21, !llvm.loop !8

37:                                               ; preds = %35
  %38 = call ptr @proto_tree_add_expert(ptr noundef %.0, ptr noundef %1, ptr noundef nonnull @ei_mms_zero_pdu, ptr noundef %0, i32 noundef %.023, i32 noundef -1)
  br label %.loopexit

.loopexit:                                        ; preds = %21, %37
  %39 = call i32 @tvb_captured_length(ptr noundef %0)
  call void @llvm.lifetime.end.p0(i64 208, ptr nonnull %5) #8
  ret i32 %39
}